; Function Attrs: nounwind uwtable
define hidden i64 @SDL_GetNumberProperty_REAL(i32 noundef %0, ptr noundef %1, i64 noundef %2) local_unnamed_addr #0 {
  %4 = alloca ptr, align 8
  %5 = alloca ptr, align 8
  call void @llvm.lifetime.start.p0(i64 8, ptr nonnull %4) #6
  store ptr null, ptr %4, align 8
  %.not = icmp eq i32 %0, 0
  %.not14 = icmp eq ptr %1, null
  %or.cond = or i1 %.not, %.not14
  br i1 %or.cond, label %44, label %6

6:                                                ; preds = %3
  %7 = load i8, ptr %1, align 1
  %.not15 = icmp eq i8 %7, 0
  br i1 %.not15, label %44, label %8

8:                                                ; preds = %6
  %9 = load ptr, ptr @SDL_properties, align 8
  %10 = zext i32 %0 to i64
  %11 = inttoptr i64 %10 to ptr
  %12 = call zeroext i1 @SDL_FindInHashTable(ptr noundef %9, ptr noundef nonnull %11, ptr noundef nonnull %4) #6
  %13 = load ptr, ptr %4, align 8
  %.not16 = icmp eq ptr %13, null
  br i1 %.not16, label %44, label %14

14:                                               ; preds = %8
  %15 = getelementptr inbounds nuw i8, ptr %13, i64 8
  %16 = load ptr, ptr %15, align 8
  call void @SDL_LockMutex_REAL(ptr noundef %16) #6
  call void @llvm.lifetime.start.p0(i64 8, ptr nonnull %5) #6
  store ptr null, ptr %5, align 8
  %17 = load ptr, ptr %4, align 8
  %18 = load ptr, ptr %17, align 8
  %19 = call zeroext i1 @SDL_FindInHashTable(ptr noundef %18, ptr noundef nonnull %1, ptr noundef nonnull %5) #6
  br i1 %19, label %20, label %40

20:                                               ; preds = %14
  %21 = load ptr, ptr %5, align 8
  %22 = load i32, ptr %21, align 8
  switch i32 %22, label %40 [
    i32 2, label %23
    i32 3, label %27
    i32 4, label %30
    i32 5, label %36
  ]

23:                                               ; preds = %20
  %24 = getelementptr inbounds nuw i8, ptr %21, i64 8
  %25 = load ptr, ptr %24, align 8
  %26 = call i64 @SDL_strtoll_REAL(ptr noundef %25, ptr noundef null, i32 noundef 0) #6
  br label %40

27:                                               ; preds = %20
  %28 = getelementptr inbounds nuw i8, ptr %21, i64 8
  %29 = load i64, ptr %28, align 8
  br label %40

30:                                               ; preds = %20
  %31 = getelementptr inbounds nuw i8, ptr %21, i64 8
  %32 = load float, ptr %31, align 8
  %33 = fpext float %32 to double
  %34 = call double @SDL_round_REAL(double noundef %33) #6
  %35 = fptosi double %34 to i64
  br label %40

36:                                               ; preds = %20
  %37 = getelementptr inbounds nuw i8, ptr %21, i64 8
  %38 = load i8, ptr %37, align 8, !range !5, !noundef !6
  %39 = zext nneg i8 %38 to i64
  br label %40

40:                                               ; preds = %23, %27, %30, %36, %20, %14
  %.0 = phi i64 [ %2, %20 ], [ %39, %36 ], [ %35, %30 ], [ %29, %27 ], [ %26, %23 ], [ %2, %14 ]
  call void @llvm.lifetime.end.p0(i64 8, ptr nonnull %5) #6
  %41 = load ptr, ptr %4, align 8
  %42 = getelementptr inbounds nuw i8, ptr %41, i64 8
  %43 = load ptr, ptr %42, align 8
  call void @SDL_UnlockMutex_REAL(ptr noundef %43) #6
  br label %44

44:                                               ; preds = %8, %6, %3, %40
  %.010 = phi i64 [ %.0, %40 ], [ %2, %3 ], [ %2, %6 ], [ %2, %8 ]
  call void @llvm.lifetime.end.p0(i64 8, ptr nonnull %4) #6
  ret i64 %.010
}